(lp0
csip
_unpickle_type
p1
(S'PyQt4.QtCore'
p2
S'QString'
p3
(Vqw
p4
tp5
tp6
Rp7
ag1
(g2
S'QString'
p8
(V12
p9
tp10
tp11
Rp12
ag1
(g2
S'QString'
p13
(Vred
p14
tp15
tp16
Rp17
ag1
(g2
S'QString'
p18
(Vbanaba
p19
tp20
tp21
Rp22
a.